target datalayout = "e-m:e-p270:32:32-p271:32:32-p272:64:64-i64:64-i128:128-f80:128-n8:16:32:64-S128"
target triple = "x86_64-pc-linux-gnu"

%"class.absl::Duration" = type { %"class.absl::Duration::HiRep", i32 }
%"class.absl::Duration::HiRep" = type { i32, i32 }
%"class.absl::Time" = type { %"class.absl::Duration" }

; Function Attrs: mustprogress nounwind uwtable
define linkonce_odr dso_local noundef nonnull align 4 dereferenceable(8) ptr @_ZN4absl8Duration5HiRepaSEl(ptr noundef nonnull align 4 dereferenceable(8) %0, i64 noundef %1) #5 comdat align 2 {
  %3 = alloca ptr, align 8
  %4 = alloca i64, align 8
  %5 = alloca i64, align 8
  store ptr %0, ptr %3, align 8, !tbaa !139
  store i64 %1, ptr %4, align 8, !tbaa !12
  %6 = load ptr, ptr %3, align 8
  call void @llvm.lifetime.start.p0(i64 8, ptr %5) #15
  %7 = load i64, ptr %4, align 8, !tbaa !12
  store i64 %7, ptr %5, align 8, !tbaa !12
  %8 = load i64, ptr %5, align 8, !tbaa !12
  %9 = lshr i64 %8, 32
  %10 = trunc i64 %9 to i32
  %11 = getelementptr inbounds nuw %"class.absl::Duration::HiRep", ptr %6, i32 0, i32 1
  store i32 %10, ptr %11, align 4, !tbaa !141
  %12 = load i64, ptr %5, align 8, !tbaa !12
  %13 = trunc i64 %12 to i32
  %14 = getelementptr inbounds nuw %"class.absl::Duration::HiRep", ptr %6, i32 0, i32 0
  store i32 %13, ptr %14, align 4, !tbaa !142
  call void @llvm.lifetime.end.p0(i64 8, ptr %5) #15
  ret ptr %6
}

; Function Attrs: mustprogress uwtable
define linkonce_odr dso_local void @_ZN4absl8Duration5HiRepC2El(ptr noundef nonnull align 4 dereferenceable(8) %0, i64 noundef %1) unnamed_addr #0 comdat align 2 {
  %3 = alloca ptr, align 8
  %4 = alloca i64, align 8
  store ptr %0, ptr %3, align 8, !tbaa !139
  store i64 %1, ptr %4, align 8, !tbaa !12
  %5 = load ptr, ptr %3, align 8
  %6 = getelementptr inbounds nuw %"class.absl::Duration::HiRep", ptr %5, i32 0, i32 0
  store i32 0, ptr %6, align 4, !tbaa !142
  %7 = getelementptr inbounds nuw %"class.absl::Duration::HiRep", ptr %5, i32 0, i32 1
  store i32 0, ptr %7, align 4, !tbaa !141
  %8 = load i64, ptr %4, align 8, !tbaa !12
  %9 = call noundef nonnull align 4 dereferenceable(8) ptr @_ZN4absl8Duration5HiRepaSEl(ptr noundef nonnull align 4 dereferenceable(8) %5, i64 noundef %8)
  ret void
}

; Function Attrs: mustprogress uwtable
define linkonce_odr dso_local void @_ZN4absl8DurationC2Elj(ptr noundef nonnull align 4 dereferenceable(12) %0, i64 noundef %1, i32 noundef %2) unnamed_addr #0 comdat align 2 {
  %4 = alloca ptr, align 8
  %5 = alloca i64, align 8
  %6 = alloca i32, align 4
  store ptr %0, ptr %4, align 8, !tbaa !151
  store i64 %1, ptr %5, align 8, !tbaa !12
  store i32 %2, ptr %6, align 4, !tbaa !10
  %7 = load ptr, ptr %4, align 8
  %8 = getelementptr inbounds nuw %"class.absl::Duration", ptr %7, i32 0, i32 0
  %9 = load i64, ptr %5, align 8, !tbaa !12
  call void @_ZN4absl8Duration5HiRepC2El(ptr noundef nonnull align 4 dereferenceable(8) %8, i64 noundef %9)
  %10 = getelementptr inbounds nuw %"class.absl::Duration", ptr %7, i32 0, i32 1
  %11 = load i32, ptr %6, align 4, !tbaa !10
  store i32 %11, ptr %10, align 4, !tbaa !68
  ret void
}

; Function Attrs: mustprogress nounwind willreturn memory(none) uwtable
define linkonce_odr dso_local { i64, i32 } @_ZN4absl13time_internal12MakeDurationElj(i64 noundef %0, i32 noundef %1) #1 comdat {
  %3 = alloca %"class.absl::Duration", align 4
  %4 = alloca i64, align 8
  %5 = alloca i32, align 4
  %6 = alloca { i64, i32 }, align 8
  store i64 %0, ptr %4, align 8, !tbaa !12
  store i32 %1, ptr %5, align 4, !tbaa !10
  %7 = load i64, ptr %4, align 8, !tbaa !12
  %8 = load i32, ptr %5, align 4, !tbaa !10
  call void @_ZN4absl8DurationC2Elj(ptr noundef nonnull align 4 dereferenceable(12) %3, i64 noundef %7, i32 noundef %8)
  call void @llvm.memcpy.p0.p0.i64(ptr align 8 %6, ptr align 4 %3, i64 12, i1 false)
  %9 = load { i64, i32 }, ptr %6, align 8
  ret { i64, i32 } %9
}

; Function Attrs: mustprogress nounwind willreturn memory(none) uwtable
define linkonce_odr dso_local { i64, i32 } @_ZN4absl13time_internal12MakeDurationEll(i64 noundef %0, i64 noundef %1) #1 comdat {
  %3 = alloca %"class.absl::Duration", align 4
  %4 = alloca i64, align 8
  %5 = alloca i64, align 8
  %6 = alloca { i64, i32 }, align 8
  %7 = alloca { i64, i32 }, align 8
  store i64 %0, ptr %4, align 8, !tbaa !12
  store i64 %1, ptr %5, align 8, !tbaa !12
  %8 = load i64, ptr %4, align 8, !tbaa !12
  %9 = load i64, ptr %5, align 8, !tbaa !12
  %10 = trunc i64 %9 to i32
  %11 = call { i64, i32 } @_ZN4absl13time_internal12MakeDurationElj(i64 noundef %8, i32 noundef %10) #14
  store { i64, i32 } %11, ptr %6, align 8
  call void @llvm.memcpy.p0.p0.i64(ptr align 4 %3, ptr align 8 %6, i64 12, i1 false)
  call void @llvm.memcpy.p0.p0.i64(ptr align 8 %7, ptr align 4 %3, i64 12, i1 false)
  %12 = load { i64, i32 }, ptr %7, align 8
  ret { i64, i32 } %12
}

; Function Attrs: mustprogress nounwind willreturn memory(none) uwtable
define linkonce_odr dso_local { i64, i32 } @_ZN4absl13time_internal22MakeNormalizedDurationEll(i64 noundef %0, i64 noundef %1) #1 comdat {
  %3 = alloca %"class.absl::Duration", align 4
  %4 = alloca i64, align 8
  %5 = alloca i64, align 8
  %6 = alloca { i64, i32 }, align 8
  %7 = alloca { i64, i32 }, align 8
  %8 = alloca { i64, i32 }, align 8
  store i64 %0, ptr %4, align 8, !tbaa !12
  store i64 %1, ptr %5, align 8, !tbaa !12
  %9 = load i64, ptr %5, align 8, !tbaa !12
  %10 = icmp slt i64 %9, 0
  br i1 %10, label %11, label %17

11:                                               ; preds = %2
  %12 = load i64, ptr %4, align 8, !tbaa !12
  %13 = sub nsw i64 %12, 1
  %14 = load i64, ptr %5, align 8, !tbaa !12
  %15 = add nsw i64 %14, 4000000000
  %16 = call { i64, i32 } @_ZN4absl13time_internal12MakeDurationEll(i64 noundef %13, i64 noundef %15) #14
  store { i64, i32 } %16, ptr %6, align 8
  call void @llvm.memcpy.p0.p0.i64(ptr align 4 %3, ptr align 8 %6, i64 12, i1 false)
  br label %21

17:                                               ; preds = %2
  %18 = load i64, ptr %4, align 8, !tbaa !12
  %19 = load i64, ptr %5, align 8, !tbaa !12
  %20 = call { i64, i32 } @_ZN4absl13time_internal12MakeDurationEll(i64 noundef %18, i64 noundef %19) #14
  store { i64, i32 } %20, ptr %7, align 8
  call void @llvm.memcpy.p0.p0.i64(ptr align 4 %3, ptr align 8 %7, i64 12, i1 false)
  br label %21

21:                                               ; preds = %17, %11
  call void @llvm.memcpy.p0.p0.i64(ptr align 8 %8, ptr align 4 %3, i64 12, i1 false)
  %22 = load { i64, i32 }, ptr %8, align 8
  ret { i64, i32 } %22
}

; Function Attrs: mustprogress nounwind willreturn memory(none) uwtable
define linkonce_odr dso_local { i64, i32 } @_ZN4absl13time_internal9FromInt64ILl1000EEENS_8DurationElSt5ratioILl1EXT_EE(i64 noundef %0) #1 comdat {
  %2 = alloca %"class.absl::Duration", align 4
  %3 = alloca i64, align 8
  %4 = alloca { i64, i32 }, align 8
  %5 = alloca { i64, i32 }, align 8
  store i64 %0, ptr %3, align 8, !tbaa !12
  %6 = load i64, ptr %3, align 8, !tbaa !12
  %7 = sdiv i64 %6, 1000
  %8 = load i64, ptr %3, align 8, !tbaa !12
  %9 = srem i64 %8, 1000
  %10 = mul nsw i64 %9, 4
  %11 = mul nsw i64 %10, 1000
  %12 = mul nsw i64 %11, 1000
  %13 = mul nsw i64 %12, 1000
  %14 = sdiv i64 %13, 1000
  %15 = call { i64, i32 } @_ZN4absl13time_internal22MakeNormalizedDurationEll(i64 noundef %7, i64 noundef %14) #14
  store { i64, i32 } %15, ptr %4, align 8
  call void @llvm.memcpy.p0.p0.i64(ptr align 4 %2, ptr align 8 %4, i64 12, i1 false)
  call void @llvm.memcpy.p0.p0.i64(ptr align 8 %5, ptr align 4 %2, i64 12, i1 false)
  %16 = load { i64, i32 }, ptr %5, align 8
  ret { i64, i32 } %16
}

; Function Attrs: mustprogress nounwind uwtable
define linkonce_odr dso_local void @_ZN4absl4TimeC2ENS_8DurationE(ptr noundef nonnull align 4 dereferenceable(12) %0, i64 %1, i32 %2) unnamed_addr #5 comdat align 2 {
  %4 = alloca %"class.absl::Duration", align 4
  %5 = alloca { i64, i32 }, align 4
  %6 = alloca ptr, align 8
  %7 = getelementptr inbounds nuw { i64, i32 }, ptr %5, i32 0, i32 0
  store i64 %1, ptr %7, align 4
  %8 = getelementptr inbounds nuw { i64, i32 }, ptr %5, i32 0, i32 1
  store i32 %2, ptr %8, align 4
  call void @llvm.memcpy.p0.p0.i64(ptr align 4 %4, ptr align 4 %5, i64 12, i1 false)
  store ptr %0, ptr %6, align 8, !tbaa !4
  %9 = load ptr, ptr %6, align 8
  %10 = getelementptr inbounds nuw %"class.absl::Time", ptr %9, i32 0, i32 0
  call void @llvm.memcpy.p0.p0.i64(ptr align 4 %10, ptr align 4 %4, i64 12, i1 false), !tbaa.struct !9
  ret void
}

; Function Attrs: mustprogress nounwind willreturn memory(none) uwtable
define linkonce_odr dso_local { i64, i32 } @_ZN4abslmlIdEENS_8DurationET_S1_(double noundef %0, i64 %1, i32 %2) #1 comdat {
  %4 = alloca %"class.absl::Duration", align 4
  %5 = alloca %"class.absl::Duration", align 4
  %6 = alloca { i64, i32 }, align 4
  %7 = alloca double, align 8
  %8 = alloca { i64, i32 }, align 8
  %9 = getelementptr inbounds nuw { i64, i32 }, ptr %6, i32 0, i32 0
  store i64 %1, ptr %9, align 4
  %10 = getelementptr inbounds nuw { i64, i32 }, ptr %6, i32 0, i32 1
  store i32 %2, ptr %10, align 4
  call void @llvm.memcpy.p0.p0.i64(ptr align 4 %5, ptr align 4 %6, i64 12, i1 false)
  store double %0, ptr %7, align 8, !tbaa !69
  %11 = load double, ptr %7, align 8, !tbaa !69
  %12 = call noundef nonnull align 4 dereferenceable(12) ptr @_ZN4absl8DurationmLEd(ptr noundef nonnull align 4 dereferenceable(12) %5, double noundef %11)
  call void @llvm.memcpy.p0.p0.i64(ptr align 4 %4, ptr align 4 %12, i64 12, i1 false), !tbaa.struct !9
  call void @llvm.memcpy.p0.p0.i64(ptr align 8 %8, ptr align 4 %4, i64 12, i1 false)
  %13 = load { i64, i32 }, ptr %8, align 8
  ret { i64, i32 } %13
}

; Function Attrs: mustprogress nounwind willreturn memory(none) uwtable
define linkonce_odr dso_local { i64, i32 } @_ZN4absl12MillisecondsIiTnNSt9enable_ifIXoosr3std11is_integralIT_EE5valuesr3std7is_enumIS2_EE5valueEiE4typeELi0EEENS_8DurationES2_(i32 noundef %0) #1 comdat {
  %2 = alloca %"class.absl::Duration", align 4
  %3 = alloca i32, align 4
  %4 = alloca { i64, i32 }, align 8
  %5 = alloca { i64, i32 }, align 8
  store i32 %0, ptr %3, align 4, !tbaa !10
  %6 = load i32, ptr %3, align 4, !tbaa !10
  %7 = sext i32 %6 to i64
  %8 = call { i64, i32 } @_ZN4absl13time_internal9FromInt64ILl1000EEENS_8DurationElSt5ratioILl1EXT_EE(i64 noundef %7) #14
  store { i64, i32 } %8, ptr %4, align 8
  call void @llvm.memcpy.p0.p0.i64(ptr align 4 %2, ptr align 8 %4, i64 12, i1 false)
  call void @llvm.memcpy.p0.p0.i64(ptr align 8 %5, ptr align 4 %2, i64 12, i1 false)
  %9 = load { i64, i32 }, ptr %5, align 8
  ret { i64, i32 } %9
}

; Function Attrs: mustprogress nounwind willreturn memory(none) uwtable
define linkonce_odr dso_local { i64, i32 } @_ZN4absl13time_internal16FromUnixDurationENS_8DurationE(i64 %0, i32 %1) #1 comdat {
  %3 = alloca %"class.absl::Time", align 4
  %4 = alloca %"class.absl::Duration", align 4
  %5 = alloca { i64, i32 }, align 4
  %6 = alloca %"class.absl::Duration", align 4
  %7 = alloca { i64, i32 }, align 4
  %8 = alloca { i64, i32 }, align 8
  %9 = getelementptr inbounds nuw { i64, i32 }, ptr %5, i32 0, i32 0
  store i64 %0, ptr %9, align 4
  %10 = getelementptr inbounds nuw { i64, i32 }, ptr %5, i32 0, i32 1
  store i32 %1, ptr %10, align 4
  call void @llvm.memcpy.p0.p0.i64(ptr align 4 %4, ptr align 4 %5, i64 12, i1 false)
  call void @llvm.memcpy.p0.p0.i64(ptr align 4 %6, ptr align 4 %4, i64 12, i1 false), !tbaa.struct !9
  call void @llvm.memcpy.p0.p0.i64(ptr align 4 %7, ptr align 4 %6, i64 12, i1 false)
  %11 = getelementptr inbounds nuw { i64, i32 }, ptr %7, i32 0, i32 0
  %12 = load i64, ptr %11, align 4
  %13 = getelementptr inbounds nuw { i64, i32 }, ptr %7, i32 0, i32 1
  %14 = load i32, ptr %13, align 4
  call void @_ZN4absl4TimeC2ENS_8DurationE(ptr noundef nonnull align 4 dereferenceable(12) %3, i64 %12, i32 %14)
  %15 = getelementptr inbounds nuw %"class.absl::Time", ptr %3, i32 0, i32 0
  call void @llvm.memcpy.p0.p0.i64(ptr align 8 %8, ptr align 4 %15, i64 12, i1 false)
  %16 = load { i64, i32 }, ptr %8, align 8
  ret { i64, i32 } %16
}

; Function Attrs: mustprogress nounwind willreturn memory(none) uwtable
define linkonce_odr dso_local { i64, i32 } @_ZN4absl12MillisecondsIdTnNSt9enable_ifIXsr3std17is_floating_pointIT_EE5valueEiE4typeELi0EEENS_8DurationES2_(double noundef %0) #1 comdat {
  %2 = alloca %"class.absl::Duration", align 4
  %3 = alloca double, align 8
  %4 = alloca %"class.absl::Duration", align 4
  %5 = alloca { i64, i32 }, align 8
  %6 = alloca { i64, i32 }, align 4
  %7 = alloca { i64, i32 }, align 8
  %8 = alloca { i64, i32 }, align 8
  store double %0, ptr %3, align 8, !tbaa !69
  %9 = load double, ptr %3, align 8, !tbaa !69
  %10 = call { i64, i32 } @_ZN4absl12MillisecondsIiTnNSt9enable_ifIXoosr3std11is_integralIT_EE5valuesr3std7is_enumIS2_EE5valueEiE4typeELi0EEENS_8DurationES2_(i32 noundef 1) #14
  store { i64, i32 } %10, ptr %5, align 8
  call void @llvm.memcpy.p0.p0.i64(ptr align 4 %4, ptr align 8 %5, i64 12, i1 false)
  call void @llvm.memcpy.p0.p0.i64(ptr align 4 %6, ptr align 4 %4, i64 12, i1 false)
  %11 = getelementptr inbounds nuw { i64, i32 }, ptr %6, i32 0, i32 0
  %12 = load i64, ptr %11, align 4
  %13 = getelementptr inbounds nuw { i64, i32 }, ptr %6, i32 0, i32 1
  %14 = load i32, ptr %13, align 4
  %15 = call { i64, i32 } @_ZN4abslmlIdEENS_8DurationET_S1_(double noundef %9, i64 %12, i32 %14) #14
  store { i64, i32 } %15, ptr %7, align 8
  call void @llvm.memcpy.p0.p0.i64(ptr align 4 %2, ptr align 8 %7, i64 12, i1 false)
  call void @llvm.memcpy.p0.p0.i64(ptr align 8 %8, ptr align 4 %2, i64 12, i1 false)
  %16 = load { i64, i32 }, ptr %8, align 8
  ret { i64, i32 } %16
}

; Function Attrs: mustprogress nounwind willreturn memory(none) uwtable
define dso_local { i64, i32 } @_ZN4absl9FromUDateEd(double noundef %0) #1 {
  %2 = alloca %"class.absl::Time", align 4
  %3 = alloca double, align 8
  %4 = alloca %"class.absl::Duration", align 4
  %5 = alloca { i64, i32 }, align 8
  %6 = alloca { i64, i32 }, align 4
  %7 = alloca { i64, i32 }, align 8
  %8 = alloca { i64, i32 }, align 8
  store double %0, ptr %3, align 8, !tbaa !69
  %9 = load double, ptr %3, align 8, !tbaa !69
  %10 = call { i64, i32 } @_ZN4absl12MillisecondsIdTnNSt9enable_ifIXsr3std17is_floating_pointIT_EE5valueEiE4typeELi0EEENS_8DurationES2_(double noundef %9) #14
  store { i64, i32 } %10, ptr %5, align 8
  call void @llvm.memcpy.p0.p0.i64(ptr align 4 %4, ptr align 8 %5, i64 12, i1 false)
  call void @llvm.memcpy.p0.p0.i64(ptr align 4 %6, ptr align 4 %4, i64 12, i1 false)
  %11 = getelementptr inbounds nuw { i64, i32 }, ptr %6, i32 0, i32 0
  %12 = load i64, ptr %11, align 4
  %13 = getelementptr inbounds nuw { i64, i32 }, ptr %6, i32 0, i32 1
  %14 = load i32, ptr %13, align 4
  %15 = call { i64, i32 } @_ZN4absl13time_internal16FromUnixDurationENS_8DurationE(i64 %12, i32 %14) #14
  %16 = getelementptr inbounds nuw %"class.absl::Time", ptr %2, i32 0, i32 0
  store { i64, i32 } %15, ptr %7, align 8
  call void @llvm.memcpy.p0.p0.i64(ptr align 4 %16, ptr align 8 %7, i64 12, i1 false)
  %17 = getelementptr inbounds nuw %"class.absl::Time", ptr %2, i32 0, i32 0
  call void @llvm.memcpy.p0.p0.i64(ptr align 8 %8, ptr align 4 %17, i64 12, i1 false)
  %18 = load { i64, i32 }, ptr %8, align 8
  ret { i64, i32 } %18
}